target datalayout = "e-m:e-p270:32:32-p271:32:32-p272:64:64-i64:64-i128:128-f80:128-n8:16:32:64-S128"
target triple = "x86_64-pc-linux-gnu"

%struct.Vec_Int_t_ = type { i32, i32, ptr }
%struct.Abc_Obj_t_ = type { ptr, ptr, i32, i32, %struct.Vec_Int_t_, %struct.Vec_Int_t_, %union.anon, %union.anon.0 }
%union.anon = type { ptr }
%union.anon.0 = type { ptr }

; Function Attrs: inlinehint nounwind uwtable
define internal i32 @Abc_ObjFanoutNum(ptr noundef %0) #4 {
  %2 = alloca ptr, align 8
  store ptr %0, ptr %2, align 8, !tbaa !53
  %3 = load ptr, ptr %2, align 8, !tbaa !53
  %4 = getelementptr inbounds nuw %struct.Abc_Obj_t_, ptr %3, i32 0, i32 5
  %5 = getelementptr inbounds nuw %struct.Vec_Int_t_, ptr %4, i32 0, i32 1
  %6 = load i32, ptr %5, align 4, !tbaa !90
  ret i32 %6
}

; Function Attrs: nounwind uwtable
define i32 @Abc_NodeCompareByFanoutCount(ptr noundef %0, ptr noundef %1) #0 {
  %3 = alloca i32, align 4
  %4 = alloca ptr, align 8
  %5 = alloca ptr, align 8
  %6 = alloca i32, align 4
  %7 = alloca i32, align 4
  store ptr %0, ptr %4, align 8, !tbaa !225
  store ptr %1, ptr %5, align 8, !tbaa !225
  call void @llvm.lifetime.start.p0(i64 4, ptr %6) #11
  %8 = load ptr, ptr %5, align 8, !tbaa !225
  %9 = load ptr, ptr %8, align 8, !tbaa !53
  %10 = call i32 @Abc_ObjFanoutNum(ptr noundef %9)
  %11 = load ptr, ptr %4, align 8, !tbaa !225
  %12 = load ptr, ptr %11, align 8, !tbaa !53
  %13 = call i32 @Abc_ObjFanoutNum(ptr noundef %12)
  %14 = sub nsw i32 %10, %13
  store i32 %14, ptr %6, align 4, !tbaa !3
  %15 = load i32, ptr %6, align 4, !tbaa !3
  %16 = icmp slt i32 %15, 0
  br i1 %16, label %17, label %18

17:                                               ; preds = %2
  store i32 -1, ptr %3, align 4
  store i32 1, ptr %7, align 4
  br label %38

18:                                               ; preds = %2
  %19 = load i32, ptr %6, align 4, !tbaa !3
  %20 = icmp sgt i32 %19, 0
  br i1 %20, label %21, label %22

21:                                               ; preds = %18
  store i32 1, ptr %3, align 4
  store i32 1, ptr %7, align 4
  br label %38

22:                                               ; preds = %18
  %23 = load ptr, ptr %4, align 8, !tbaa !225
  %24 = load ptr, ptr %23, align 8, !tbaa !53
  %25 = call ptr @Abc_ObjName(ptr noundef %24)
  %26 = load ptr, ptr %5, align 8, !tbaa !225
  %27 = load ptr, ptr %26, align 8, !tbaa !53
  %28 = call ptr @Abc_ObjName(ptr noundef %27)
  %29 = call i32 @strcmp(ptr noundef %25, ptr noundef %28) #13
  store i32 %29, ptr %6, align 4, !tbaa !3
  %30 = load i32, ptr %6, align 4, !tbaa !3
  %31 = icmp slt i32 %30, 0
  br i1 %31, label %32, label %33

32:                                               ; preds = %22
  store i32 -1, ptr %3, align 4
  store i32 1, ptr %7, align 4
  br label %38

33:                                               ; preds = %22
  %34 = load i32, ptr %6, align 4, !tbaa !3
  %35 = icmp sgt i32 %34, 0
  br i1 %35, label %36, label %37

36:                                               ; preds = %33
  store i32 1, ptr %3, align 4
  store i32 1, ptr %7, align 4
  br label %38

37:                                               ; preds = %33
  store i32 0, ptr %3, align 4
  store i32 1, ptr %7, align 4
  br label %38

38:                                               ; preds = %37, %36, %32, %21, %17
  call void @llvm.lifetime.end.p0(i64 4, ptr %6) #11
  %39 = load i32, ptr %3, align 4
  ret i32 %39
}