; Function Attrs: nounwind uwtable
define range(i32 -1, 2) i32 @Abc_NodeCompareByFanoutCount(ptr noundef readonly captures(none) %0, ptr noundef readonly captures(none) %1) #0 {
  %3 = load ptr, ptr %1, align 8, !tbaa !165
  %4 = getelementptr i8, ptr %3, i64 44
  %.val11 = load i32, ptr %4, align 4, !tbaa !85
  %5 = load ptr, ptr %0, align 8, !tbaa !165
  %6 = getelementptr i8, ptr %5, i64 44
  %.val = load i32, ptr %6, align 4, !tbaa !85
  %7 = icmp slt i32 %.val11, %.val
  br i1 %7, label %16, label %8

8:                                                ; preds = %2
  %.not = icmp eq i32 %.val11, %.val
  br i1 %.not, label %9, label %16

9:                                                ; preds = %8
  %10 = tail call ptr @Abc_ObjName(ptr noundef nonnull %5) #20
  %11 = load ptr, ptr %1, align 8, !tbaa !165
  %12 = tail call ptr @Abc_ObjName(ptr noundef %11) #20
  %13 = tail call i32 @strcmp(ptr noundef nonnull dereferenceable(1) %10, ptr noundef nonnull dereferenceable(1) %12) #22
  %14 = icmp slt i32 %13, 0
  br i1 %14, label %16, label %15

15:                                               ; preds = %9
  %.not10 = icmp ne i32 %13, 0
  %. = zext i1 %.not10 to i32
  br label %16

16:                                               ; preds = %15, %9, %8, %2
  %.0 = phi i32 [ -1, %2 ], [ 1, %8 ], [ -1, %9 ], [ %., %15 ]
  ret i32 %.0
}